target datalayout = "e-m:e-p270:32:32-p271:32:32-p272:64:64-i64:64-i128:128-f80:128-n8:16:32:64-S128"
target triple = "x86_64-pc-linux-gnu"

; Function Attrs: nounwind uwtable
define i32 @ossl_ffc_params_FIPS186_2_generate(ptr noundef %0, ptr noundef %1, i32 noundef %2, i64 noundef %3, i64 noundef %4, ptr noundef %5, ptr noundef %6) #0 {
  %8 = alloca i32, align 4
  %9 = alloca ptr, align 8
  %10 = alloca ptr, align 8
  %11 = alloca i32, align 4
  %12 = alloca i64, align 8
  %13 = alloca i64, align 8
  %14 = alloca ptr, align 8
  %15 = alloca ptr, align 8
  store ptr %0, ptr %9, align 8, !tbaa !3
  store ptr %1, ptr %10, align 8, !tbaa !8
  store i32 %2, ptr %11, align 4, !tbaa !10
  store i64 %3, ptr %12, align 8, !tbaa !12
  store i64 %4, ptr %13, align 8, !tbaa !12
  store ptr %5, ptr %14, align 8, !tbaa !14
  store ptr %6, ptr %15, align 8, !tbaa !16
  %16 = load ptr, ptr %9, align 8, !tbaa !3
  %17 = load ptr, ptr %10, align 8, !tbaa !8
  %18 = load i32, ptr %11, align 4, !tbaa !10
  %19 = load i64, ptr %12, align 8, !tbaa !12
  %20 = load i64, ptr %13, align 8, !tbaa !12
  %21 = load ptr, ptr %14, align 8, !tbaa !14
  %22 = load ptr, ptr %15, align 8, !tbaa !16
  %23 = call i32 @ossl_ffc_params_FIPS186_2_gen_verify(ptr noundef %16, ptr noundef %17, i32 noundef 1, i32 noundef %18, i64 noundef %19, i64 noundef %20, ptr noundef %21, ptr noundef %22)
  %24 = icmp ne i32 %23, 0
  br i1 %24, label %26, label %25

25:                                               ; preds = %7
  store i32 0, ptr %8, align 4
  br label %28

26:                                               ; preds = %7
  %27 = load ptr, ptr %10, align 8, !tbaa !8
  call void @ossl_ffc_params_enable_flags(ptr noundef %27, i32 noundef 4, i32 noundef 1)
  store i32 1, ptr %8, align 4
  br label %28

28:                                               ; preds = %26, %25
  %29 = load i32, ptr %8, align 4
  ret i32 %29
}