; Function Attrs: nounwind uwtable
define range(i32 0, 2) i32 @ossl_ffc_params_FIPS186_2_generate(ptr noundef %0, ptr noundef %1, i32 noundef %2, i64 noundef %3, i64 noundef %4, ptr noundef initializes((0, 4)) %5, ptr noundef %6) local_unnamed_addr #0 {
  %8 = tail call i32 @ossl_ffc_params_FIPS186_2_gen_verify(ptr noundef %0, ptr noundef %1, i32 noundef 1, i32 poison, i64 noundef %3, i64 noundef %4, ptr noundef %5, ptr noundef %6)
  %.not = icmp eq i32 %8, 0
  br i1 %.not, label %10, label %9

9:                                                ; preds = %7
  tail call void @ossl_ffc_params_enable_flags(ptr noundef %1, i32 noundef 4, i32 noundef 1) #5
  br label %10

10:                                               ; preds = %7, %9
  %.0 = phi i32 [ 1, %9 ], [ 0, %7 ]
  ret i32 %.0
}